; Function Attrs: mustprogress nounwind uwtable
define dso_local noundef i32 @_ZN4node6crypto18DSAKeyExportTraits8DoExportESt10shared_ptrINS0_13KeyObjectDataEENS0_18WebCryptoKeyFormatERKNS0_18DSAKeyExportConfigEPNS0_10ByteSourceE(ptr nocapture noundef readonly %key_data, i32 noundef %format, ptr nocapture nonnull readnone align 8 %params, ptr noundef %out) local_unnamed_addr #3 align 2 {
entry:
  %0 = load ptr, ptr %key_data, align 8
  %call1 = tail call noundef i32 @_ZNK4node6crypto13KeyObjectData10GetKeyTypeEv(ptr noundef nonnull align 8 dereferenceable(72) %0) #17
  %cmp.not = icmp eq i32 %call1, 0
  br i1 %cmp.not, label %do.body4, label %do.end5

do.body4:                                         ; preds = %entry
  tail call void @_ZN4node6AssertERKNS_13AssertionInfoE(ptr noundef nonnull align 8 dereferenceable(24) @_ZZN4node6crypto18DSAKeyExportTraits8DoExportESt10shared_ptrINS0_13KeyObjectDataEENS0_18WebCryptoKeyFormatERKNS0_18DSAKeyExportConfigEPNS0_10ByteSourceEE4args) #17
  tail call void @abort() #18
  unreachable

do.end5:                                          ; preds = %entry
  switch i32 %format, label %do.body22 [
    i32 0, label %return
    i32 1, label %sw.bb6
    i32 2, label %sw.bb14
  ]

sw.bb6:                                           ; preds = %do.end5
  %1 = load ptr, ptr %key_data, align 8
  %call8 = tail call noundef i32 @_ZNK4node6crypto13KeyObjectData10GetKeyTypeEv(ptr noundef nonnull align 8 dereferenceable(72) %1) #17
  %cmp9.not = icmp eq i32 %call8, 2
  br i1 %cmp9.not, label %if.end11, label %return

if.end11:                                         ; preds = %sw.bb6
  %2 = load ptr, ptr %key_data, align 8
  %call13 = tail call noundef i32 @_ZN4node6crypto17PKEY_PKCS8_ExportEPNS0_13KeyObjectDataEPNS0_10ByteSourceE(ptr noundef %2, ptr noundef %out) #17
  br label %return

sw.bb14:                                          ; preds = %do.end5
  %3 = load ptr, ptr %key_data, align 8
  %call16 = tail call noundef i32 @_ZNK4node6crypto13KeyObjectData10GetKeyTypeEv(ptr noundef nonnull align 8 dereferenceable(72) %3) #17
  %cmp17.not = icmp eq i32 %call16, 1
  br i1 %cmp17.not, label %if.end19, label %return

if.end19:                                         ; preds = %sw.bb14
  %4 = load ptr, ptr %key_data, align 8
  %call21 = tail call noundef i32 @_ZN4node6crypto16PKEY_SPKI_ExportEPNS0_13KeyObjectDataEPNS0_10ByteSourceE(ptr noundef %4, ptr noundef %out) #17
  br label %return

do.body22:                                        ; preds = %do.end5
  tail call void @_ZN4node6AssertERKNS_13AssertionInfoE(ptr noundef nonnull align 8 dereferenceable(24) @_ZZN4node6crypto18DSAKeyExportTraits8DoExportESt10shared_ptrINS0_13KeyObjectDataEENS0_18WebCryptoKeyFormatERKNS0_18DSAKeyExportConfigEPNS0_10ByteSourceEE4args_0) #17
  tail call void @abort() #18
  unreachable

return:                                           ; preds = %sw.bb14, %sw.bb6, %do.end5, %if.end19, %if.end11
  %retval.0 = phi i32 [ %call21, %if.end19 ], [ %call13, %if.end11 ], [ 2, %do.end5 ], [ 1, %sw.bb6 ], [ 1, %sw.bb14 ]
  ret i32 %retval.0
}